target datalayout = "e-m:e-p270:32:32-p271:32:32-p272:64:64-i64:64-i128:128-f80:128-n8:16:32:64-S128"
target triple = "x86_64-pc-linux-gnu"

; Function Attrs: inlinehint nounwind uwtable
define internal ptr @ossl_check_ASN1_UTF8STRING_type(ptr noundef %0) #5 {
  %2 = alloca ptr, align 8
  store ptr %0, ptr %2, align 8, !tbaa !33
  %3 = load ptr, ptr %2, align 8, !tbaa !33
  ret ptr %3
}

; Function Attrs: inlinehint nounwind uwtable
define internal ptr @ossl_check_ASN1_UTF8STRING_sk_type(ptr noundef %0) #5 {
  %2 = alloca ptr, align 8
  store ptr %0, ptr %2, align 8, !tbaa !31
  %3 = load ptr, ptr %2, align 8, !tbaa !31
  ret ptr %3
}

; Function Attrs: nounwind uwtable
define i32 @ossl_cmp_sk_ASN1_UTF8STRING_push_str(ptr noundef %0, ptr noundef %1, i32 noundef %2) #0 {
  %4 = alloca i32, align 4
  %5 = alloca ptr, align 8
  %6 = alloca ptr, align 8
  %7 = alloca i32, align 4
  %8 = alloca ptr, align 8
  %9 = alloca i32, align 4
  store ptr %0, ptr %5, align 8, !tbaa !31
  store ptr %1, ptr %6, align 8, !tbaa !3
  store i32 %2, ptr %7, align 4, !tbaa !12
  call void @llvm.lifetime.start.p0(i64 8, ptr %8) #7
  %10 = load ptr, ptr %5, align 8, !tbaa !31
  %11 = icmp ne ptr %10, null
  br i1 %11, label %12, label %15

12:                                               ; preds = %3
  %13 = load ptr, ptr %6, align 8, !tbaa !3
  %14 = icmp ne ptr %13, null
  br label %15

15:                                               ; preds = %12, %3
  %16 = phi i1 [ false, %3 ], [ %14, %12 ]
  %17 = zext i1 %16 to i32
  %18 = icmp ne i32 %17, 0
  %19 = xor i1 %18, true
  %20 = xor i1 %19, true
  %21 = zext i1 %20 to i32
  %22 = sext i32 %21 to i64
  %23 = call i64 @llvm.expect.i64(i64 %22, i64 1)
  %24 = icmp ne i64 %23, 0
  br i1 %24, label %26, label %25

25:                                               ; preds = %15
  store i32 0, ptr %4, align 4
  store i32 1, ptr %9, align 4
  br label %48

26:                                               ; preds = %15
  %27 = call ptr @ASN1_UTF8STRING_new()
  store ptr %27, ptr %8, align 8, !tbaa !33
  %28 = icmp eq ptr %27, null
  br i1 %28, label %29, label %30

29:                                               ; preds = %26
  store i32 0, ptr %4, align 4
  store i32 1, ptr %9, align 4
  br label %48

30:                                               ; preds = %26
  %31 = load ptr, ptr %8, align 8, !tbaa !33
  %32 = load ptr, ptr %6, align 8, !tbaa !3
  %33 = load i32, ptr %7, align 4, !tbaa !12
  %34 = call i32 @ASN1_STRING_set(ptr noundef %31, ptr noundef %32, i32 noundef %33)
  %35 = icmp ne i32 %34, 0
  br i1 %35, label %37, label %36

36:                                               ; preds = %30
  br label %46

37:                                               ; preds = %30
  %38 = load ptr, ptr %5, align 8, !tbaa !31
  %39 = call ptr @ossl_check_ASN1_UTF8STRING_sk_type(ptr noundef %38)
  %40 = load ptr, ptr %8, align 8, !tbaa !33
  %41 = call ptr @ossl_check_ASN1_UTF8STRING_type(ptr noundef %40)
  %42 = call i32 @OPENSSL_sk_push(ptr noundef %39, ptr noundef %41)
  %43 = icmp ne i32 %42, 0
  br i1 %43, label %45, label %44

44:                                               ; preds = %37
  br label %46

45:                                               ; preds = %37
  store i32 1, ptr %4, align 4
  store i32 1, ptr %9, align 4
  br label %48

46:                                               ; preds = %44, %36
  %47 = load ptr, ptr %8, align 8, !tbaa !33
  call void @ASN1_UTF8STRING_free(ptr noundef %47)
  store i32 0, ptr %4, align 4
  store i32 1, ptr %9, align 4
  br label %48

48:                                               ; preds = %46, %45, %29, %25
  call void @llvm.lifetime.end.p0(i64 8, ptr %8) #7
  %49 = load i32, ptr %4, align 4
  ret i32 %49
}