; Function Attrs: nounwind uwtable
define range(i32 0, 2) i32 @ossl_cmp_sk_ASN1_UTF8STRING_push_str(ptr noundef %0, ptr noundef %1, i32 noundef %2) local_unnamed_addr #1 {
  %4 = icmp ne ptr %0, null
  %5 = icmp ne ptr %1, null
  %6 = and i1 %4, %5
  br i1 %6, label %7, label %15, !prof !15

7:                                                ; preds = %3
  %8 = tail call ptr @ASN1_UTF8STRING_new() #7
  %9 = icmp eq ptr %8, null
  br i1 %9, label %15, label %10

10:                                               ; preds = %7
  %11 = tail call i32 @ASN1_STRING_set(ptr noundef nonnull %8, ptr noundef nonnull %1, i32 noundef %2) #7
  %.not = icmp eq i32 %11, 0
  br i1 %.not, label %14, label %12

12:                                               ; preds = %10
  %13 = tail call i32 @OPENSSL_sk_push(ptr noundef nonnull %0, ptr noundef nonnull %8) #7
  %.not11 = icmp eq i32 %13, 0
  br i1 %.not11, label %14, label %15

14:                                               ; preds = %12, %10
  tail call void @ASN1_UTF8STRING_free(ptr noundef nonnull %8) #7
  br label %15

15:                                               ; preds = %12, %7, %3, %14
  %.0 = phi i32 [ 0, %14 ], [ 0, %3 ], [ 0, %7 ], [ 1, %12 ]
  ret i32 %.0
}